target datalayout = "e-m:e-p270:32:32-p271:32:32-p272:64:64-i64:64-i128:128-f80:128-n8:16:32:64-S128"
target triple = "x86_64-pc-linux-gnu"

%struct.Node = type { i32 }
%struct.Plan = type { i32, i32, double, double, double, i32, i8, i8, i8, i32, ptr, ptr, ptr, ptr, ptr, ptr, ptr }
%struct.Path = type { i32, i32, ptr, ptr, ptr, i8, i8, i32, double, i32, double, double, ptr }
%struct.Material = type { %struct.Plan }

; Function Attrs: inlinehint nounwind uwtable
define internal ptr @newNode(i64 noundef %0, i32 noundef %1) #4 {
  %3 = alloca i64, align 8
  %4 = alloca i32, align 4
  %5 = alloca ptr, align 8
  store i64 %0, ptr %3, align 8
  store i32 %1, ptr %4, align 4
  call void @llvm.lifetime.start.p0(i64 8, ptr %5) #10
  %6 = load i64, ptr %3, align 8
  %7 = call ptr @palloc0(i64 noundef %6)
  store ptr %7, ptr %5, align 8
  %8 = load i32, ptr %4, align 4
  %9 = load ptr, ptr %5, align 8
  %10 = getelementptr inbounds nuw %struct.Node, ptr %9, i32 0, i32 0
  store i32 %8, ptr %10, align 4
  %11 = load ptr, ptr %5, align 8
  call void @llvm.lifetime.end.p0(i64 8, ptr %5) #10
  ret ptr %11
}

; Function Attrs: nounwind uwtable
define internal ptr @make_material(ptr noundef %0) #0 {
  %2 = alloca ptr, align 8
  %3 = alloca ptr, align 8
  %4 = alloca ptr, align 8
  store ptr %0, ptr %2, align 8
  call void @llvm.lifetime.start.p0(i64 8, ptr %3) #10
  %5 = call ptr @newNode(i64 noundef 104, i32 noundef 359)
  store ptr %5, ptr %3, align 8
  call void @llvm.lifetime.start.p0(i64 8, ptr %4) #10
  %6 = load ptr, ptr %3, align 8
  %7 = getelementptr inbounds nuw %struct.Material, ptr %6, i32 0, i32 0
  store ptr %7, ptr %4, align 8
  %8 = load ptr, ptr %2, align 8
  %9 = getelementptr inbounds nuw %struct.Plan, ptr %8, i32 0, i32 10
  %10 = load ptr, ptr %9, align 8
  %11 = load ptr, ptr %4, align 8
  %12 = getelementptr inbounds nuw %struct.Plan, ptr %11, i32 0, i32 10
  store ptr %10, ptr %12, align 8
  %13 = load ptr, ptr %4, align 8
  %14 = getelementptr inbounds nuw %struct.Plan, ptr %13, i32 0, i32 11
  store ptr null, ptr %14, align 8
  %15 = load ptr, ptr %2, align 8
  %16 = load ptr, ptr %4, align 8
  %17 = getelementptr inbounds nuw %struct.Plan, ptr %16, i32 0, i32 12
  store ptr %15, ptr %17, align 8
  %18 = load ptr, ptr %4, align 8
  %19 = getelementptr inbounds nuw %struct.Plan, ptr %18, i32 0, i32 13
  store ptr null, ptr %19, align 8
  %20 = load ptr, ptr %3, align 8
  call void @llvm.lifetime.end.p0(i64 8, ptr %4) #10
  call void @llvm.lifetime.end.p0(i64 8, ptr %3) #10
  ret ptr %20
}

; Function Attrs: nounwind uwtable
define dso_local ptr @materialize_finished_plan(ptr noundef %0) #0 {
  %2 = alloca ptr, align 8
  %3 = alloca ptr, align 8
  %4 = alloca %struct.Path, align 8
  %5 = alloca double, align 8
  %6 = alloca i8, align 1
  store ptr %0, ptr %2, align 8
  call void @llvm.lifetime.start.p0(i64 8, ptr %3) #10
  call void @llvm.lifetime.start.p0(i64 80, ptr %4) #10
  call void @llvm.lifetime.start.p0(i64 8, ptr %5) #10
  call void @llvm.lifetime.start.p0(i64 1, ptr %6) #10
  %7 = load ptr, ptr %2, align 8
  %8 = call ptr @make_material(ptr noundef %7)
  store ptr %8, ptr %3, align 8
  %9 = load ptr, ptr %2, align 8
  %10 = getelementptr inbounds nuw %struct.Plan, ptr %9, i32 0, i32 14
  %11 = load ptr, ptr %10, align 8
  %12 = load ptr, ptr %3, align 8
  %13 = getelementptr inbounds nuw %struct.Plan, ptr %12, i32 0, i32 14
  store ptr %11, ptr %13, align 8
  %14 = load ptr, ptr %2, align 8
  %15 = getelementptr inbounds nuw %struct.Plan, ptr %14, i32 0, i32 14
  store ptr null, ptr %15, align 8
  %16 = load ptr, ptr %3, align 8
  %17 = getelementptr inbounds nuw %struct.Plan, ptr %16, i32 0, i32 14
  %18 = load ptr, ptr %17, align 8
  call void @SS_compute_initplan_cost(ptr noundef %18, ptr noundef %5, ptr noundef %6)
  %19 = load double, ptr %5, align 8
  %20 = load ptr, ptr %2, align 8
  %21 = getelementptr inbounds nuw %struct.Plan, ptr %20, i32 0, i32 2
  %22 = load double, ptr %21, align 8
  %23 = fsub double %22, %19
  store double %23, ptr %21, align 8
  %24 = load double, ptr %5, align 8
  %25 = load ptr, ptr %2, align 8
  %26 = getelementptr inbounds nuw %struct.Plan, ptr %25, i32 0, i32 3
  %27 = load double, ptr %26, align 8
  %28 = fsub double %27, %24
  store double %28, ptr %26, align 8
  %29 = load ptr, ptr %2, align 8
  %30 = getelementptr inbounds nuw %struct.Plan, ptr %29, i32 0, i32 1
  %31 = load i32, ptr %30, align 4
  %32 = load ptr, ptr %2, align 8
  %33 = getelementptr inbounds nuw %struct.Plan, ptr %32, i32 0, i32 2
  %34 = load double, ptr %33, align 8
  %35 = load ptr, ptr %2, align 8
  %36 = getelementptr inbounds nuw %struct.Plan, ptr %35, i32 0, i32 3
  %37 = load double, ptr %36, align 8
  %38 = load ptr, ptr %2, align 8
  %39 = getelementptr inbounds nuw %struct.Plan, ptr %38, i32 0, i32 4
  %40 = load double, ptr %39, align 8
  %41 = load ptr, ptr %2, align 8
  %42 = getelementptr inbounds nuw %struct.Plan, ptr %41, i32 0, i32 5
  %43 = load i32, ptr %42, align 8
  call void @cost_material(ptr noundef %4, i32 noundef %31, double noundef %34, double noundef %37, double noundef %40, i32 noundef %43)
  %44 = load ptr, ptr %2, align 8
  %45 = getelementptr inbounds nuw %struct.Plan, ptr %44, i32 0, i32 1
  %46 = load i32, ptr %45, align 4
  %47 = load ptr, ptr %3, align 8
  %48 = getelementptr inbounds nuw %struct.Plan, ptr %47, i32 0, i32 1
  store i32 %46, ptr %48, align 4
  %49 = getelementptr inbounds nuw %struct.Path, ptr %4, i32 0, i32 10
  %50 = load double, ptr %49, align 8
  %51 = load double, ptr %5, align 8
  %52 = fadd double %50, %51
  %53 = load ptr, ptr %3, align 8
  %54 = getelementptr inbounds nuw %struct.Plan, ptr %53, i32 0, i32 2
  store double %52, ptr %54, align 8
  %55 = getelementptr inbounds nuw %struct.Path, ptr %4, i32 0, i32 11
  %56 = load double, ptr %55, align 8
  %57 = load double, ptr %5, align 8
  %58 = fadd double %56, %57
  %59 = load ptr, ptr %3, align 8
  %60 = getelementptr inbounds nuw %struct.Plan, ptr %59, i32 0, i32 3
  store double %58, ptr %60, align 8
  %61 = load ptr, ptr %2, align 8
  %62 = getelementptr inbounds nuw %struct.Plan, ptr %61, i32 0, i32 4
  %63 = load double, ptr %62, align 8
  %64 = load ptr, ptr %3, align 8
  %65 = getelementptr inbounds nuw %struct.Plan, ptr %64, i32 0, i32 4
  store double %63, ptr %65, align 8
  %66 = load ptr, ptr %2, align 8
  %67 = getelementptr inbounds nuw %struct.Plan, ptr %66, i32 0, i32 5
  %68 = load i32, ptr %67, align 8
  %69 = load ptr, ptr %3, align 8
  %70 = getelementptr inbounds nuw %struct.Plan, ptr %69, i32 0, i32 5
  store i32 %68, ptr %70, align 8
  %71 = load ptr, ptr %3, align 8
  %72 = getelementptr inbounds nuw %struct.Plan, ptr %71, i32 0, i32 6
  store i8 0, ptr %72, align 4
  %73 = load ptr, ptr %2, align 8
  %74 = getelementptr inbounds nuw %struct.Plan, ptr %73, i32 0, i32 7
  %75 = load i8, ptr %74, align 1, !range !4, !noundef !5
  %76 = trunc i8 %75 to i1
  %77 = load ptr, ptr %3, align 8
  %78 = getelementptr inbounds nuw %struct.Plan, ptr %77, i32 0, i32 7
  %79 = zext i1 %76 to i8
  store i8 %79, ptr %78, align 1
  %80 = load ptr, ptr %3, align 8
  call void @llvm.lifetime.end.p0(i64 1, ptr %6) #10
  call void @llvm.lifetime.end.p0(i64 8, ptr %5) #10
  call void @llvm.lifetime.end.p0(i64 80, ptr %4) #10
  call void @llvm.lifetime.end.p0(i64 8, ptr %3) #10
  ret ptr %80
}