; Function Attrs: nounwind uwtable
define dso_local noundef ptr @materialize_finished_plan(ptr noundef %0) local_unnamed_addr #0 {
  %2 = alloca %struct.Path, align 8
  %3 = alloca double, align 8
  %4 = alloca i8, align 1
  call void @llvm.lifetime.start.p0(i64 80, ptr nonnull %2) #12
  call void @llvm.lifetime.start.p0(i64 8, ptr nonnull %3) #12
  call void @llvm.lifetime.start.p0(i64 1, ptr nonnull %4) #12
  %5 = tail call noundef ptr @palloc0(i64 noundef 104) #12
  store i32 359, ptr %5, align 4
  %6 = getelementptr inbounds nuw i8, ptr %0, i64 48
  %7 = load ptr, ptr %6, align 8
  %8 = getelementptr inbounds nuw i8, ptr %5, i64 48
  store ptr %7, ptr %8, align 8
  %9 = getelementptr inbounds nuw i8, ptr %5, i64 56
  store ptr null, ptr %9, align 8
  %10 = getelementptr inbounds nuw i8, ptr %5, i64 64
  store ptr %0, ptr %10, align 8
  %11 = getelementptr inbounds nuw i8, ptr %5, i64 72
  store ptr null, ptr %11, align 8
  %12 = getelementptr inbounds nuw i8, ptr %0, i64 80
  %13 = load ptr, ptr %12, align 8
  %14 = getelementptr inbounds nuw i8, ptr %5, i64 80
  store ptr %13, ptr %14, align 8
  store ptr null, ptr %12, align 8
  %15 = load ptr, ptr %14, align 8
  call void @SS_compute_initplan_cost(ptr noundef %15, ptr noundef nonnull %3, ptr noundef nonnull %4) #12
  %16 = load double, ptr %3, align 8
  %17 = getelementptr inbounds nuw i8, ptr %0, i64 8
  %18 = load double, ptr %17, align 8
  %19 = fsub double %18, %16
  store double %19, ptr %17, align 8
  %20 = getelementptr inbounds nuw i8, ptr %0, i64 16
  %21 = load double, ptr %20, align 8
  %22 = fsub double %21, %16
  store double %22, ptr %20, align 8
  %23 = getelementptr inbounds nuw i8, ptr %0, i64 4
  %24 = load i32, ptr %23, align 4
  %25 = getelementptr inbounds nuw i8, ptr %0, i64 24
  %26 = load double, ptr %25, align 8
  %27 = getelementptr inbounds nuw i8, ptr %0, i64 32
  %28 = load i32, ptr %27, align 8
  call void @cost_material(ptr noundef nonnull %2, i32 noundef %24, double noundef %19, double noundef %22, double noundef %26, i32 noundef %28) #12
  %29 = load i32, ptr %23, align 4
  %30 = getelementptr inbounds nuw i8, ptr %5, i64 4
  store i32 %29, ptr %30, align 4
  %31 = getelementptr inbounds nuw i8, ptr %2, i64 56
  %32 = load double, ptr %31, align 8
  %33 = load double, ptr %3, align 8
  %34 = fadd double %32, %33
  %35 = getelementptr inbounds nuw i8, ptr %5, i64 8
  store double %34, ptr %35, align 8
  %36 = getelementptr inbounds nuw i8, ptr %2, i64 64
  %37 = load double, ptr %36, align 8
  %38 = fadd double %33, %37
  %39 = getelementptr inbounds nuw i8, ptr %5, i64 16
  store double %38, ptr %39, align 8
  %40 = load double, ptr %25, align 8
  %41 = getelementptr inbounds nuw i8, ptr %5, i64 24
  store double %40, ptr %41, align 8
  %42 = load i32, ptr %27, align 8
  %43 = getelementptr inbounds nuw i8, ptr %5, i64 32
  store i32 %42, ptr %43, align 8
  %44 = getelementptr inbounds nuw i8, ptr %5, i64 36
  store i8 0, ptr %44, align 4
  %45 = getelementptr inbounds nuw i8, ptr %0, i64 37
  %46 = load i8, ptr %45, align 1, !range !4, !noundef !5
  %47 = getelementptr inbounds nuw i8, ptr %5, i64 37
  store i8 %46, ptr %47, align 1
  call void @llvm.lifetime.end.p0(i64 1, ptr nonnull %4) #12
  call void @llvm.lifetime.end.p0(i64 8, ptr nonnull %3) #12
  call void @llvm.lifetime.end.p0(i64 80, ptr nonnull %2) #12
  ret ptr %5
}